target datalayout = "e-m:e-p270:32:32-p271:32:32-p272:64:64-i64:64-i128:128-f80:128-n8:16:32:64-S128"
target triple = "x86_64-pc-linux-gnu"

%"struct.std::_Deque_iterator" = type { ptr, ptr, ptr, ptr }
%"class.cv::MotionJpegCapture" = type { %"class.cv::IVideoCapture", %"struct.cv::Ptr", i8, %"class.std::deque", %"struct.std::_Deque_iterator", %"class.cv::Mat", i32, i32, double }
%"class.cv::IVideoCapture" = type { ptr }
%"struct.cv::Ptr" = type { %"class.std::shared_ptr" }
%"class.std::shared_ptr" = type { %"class.std::__shared_ptr" }
%"class.std::__shared_ptr" = type { ptr, %"class.std::__shared_count" }
%"class.std::__shared_count" = type { ptr }
%"class.std::deque" = type { %"class.std::_Deque_base" }
%"class.std::_Deque_base" = type { %"struct.std::_Deque_base<std::pair<unsigned long, unsigned int>, std::allocator<std::pair<unsigned long, unsigned int>>>::_Deque_impl" }
%"struct.std::_Deque_base<std::pair<unsigned long, unsigned int>, std::allocator<std::pair<unsigned long, unsigned int>>>::_Deque_impl" = type { %"struct.std::_Deque_base<std::pair<unsigned long, unsigned int>, std::allocator<std::pair<unsigned long, unsigned int>>>::_Deque_impl_data" }
%"struct.std::_Deque_base<std::pair<unsigned long, unsigned int>, std::allocator<std::pair<unsigned long, unsigned int>>>::_Deque_impl_data" = type { ptr, i64, %"struct.std::_Deque_iterator", %"struct.std::_Deque_iterator" }
%"class.cv::Mat" = type { i32, i32, i32, i32, ptr, ptr, ptr, ptr, ptr, ptr, %"struct.cv::MatSize", %"struct.cv::MatStep" }
%"struct.cv::MatSize" = type { ptr }
%"struct.cv::MatStep" = type { ptr, [2 x i64] }

; Function Attrs: mustprogress nounwind uwtable
define linkonce_odr hidden void @_ZNSt15_Deque_iteratorISt4pairImjERS1_PS1_EC2ERKS4_(ptr noundef nonnull align 8 dereferenceable(32) %0, ptr noundef nonnull align 8 dereferenceable(32) %1) unnamed_addr #4 comdat align 2 {
  %3 = alloca ptr, align 8
  %4 = alloca ptr, align 8
  store ptr %0, ptr %3, align 8, !tbaa !44
  store ptr %1, ptr %4, align 8, !tbaa !44
  %5 = load ptr, ptr %3, align 8
  %6 = getelementptr inbounds nuw %"struct.std::_Deque_iterator", ptr %5, i32 0, i32 0
  %7 = load ptr, ptr %4, align 8, !tbaa !44
  %8 = getelementptr inbounds nuw %"struct.std::_Deque_iterator", ptr %7, i32 0, i32 0
  %9 = load ptr, ptr %8, align 8, !tbaa !55
  store ptr %9, ptr %6, align 8, !tbaa !55
  %10 = getelementptr inbounds nuw %"struct.std::_Deque_iterator", ptr %5, i32 0, i32 1
  %11 = load ptr, ptr %4, align 8, !tbaa !44
  %12 = getelementptr inbounds nuw %"struct.std::_Deque_iterator", ptr %11, i32 0, i32 1
  %13 = load ptr, ptr %12, align 8, !tbaa !58
  store ptr %13, ptr %10, align 8, !tbaa !58
  %14 = getelementptr inbounds nuw %"struct.std::_Deque_iterator", ptr %5, i32 0, i32 2
  %15 = load ptr, ptr %4, align 8, !tbaa !44
  %16 = getelementptr inbounds nuw %"struct.std::_Deque_iterator", ptr %15, i32 0, i32 2
  %17 = load ptr, ptr %16, align 8, !tbaa !56
  store ptr %17, ptr %14, align 8, !tbaa !56
  %18 = getelementptr inbounds nuw %"struct.std::_Deque_iterator", ptr %5, i32 0, i32 3
  %19 = load ptr, ptr %4, align 8, !tbaa !44
  %20 = getelementptr inbounds nuw %"struct.std::_Deque_iterator", ptr %19, i32 0, i32 3
  %21 = load ptr, ptr %20, align 8, !tbaa !57
  store ptr %21, ptr %18, align 8, !tbaa !57
  ret void
}

; Function Attrs: mustprogress nounwind uwtable
define linkonce_odr hidden noundef ptr @_ZNKSt12__shared_ptrIN2cv16AVIReadContainerELN9__gnu_cxx12_Lock_policyE2EE3getEv(ptr noundef nonnull align 8 dereferenceable(16) %0) #4 comdat align 2 {
  %2 = alloca ptr, align 8
  store ptr %0, ptr %2, align 8, !tbaa !133
  %3 = load ptr, ptr %2, align 8
  %4 = getelementptr inbounds nuw %"class.std::__shared_ptr", ptr %3, i32 0, i32 0
  %5 = load ptr, ptr %4, align 8, !tbaa !135
  ret ptr %5
}

; Function Attrs: mustprogress nounwind uwtable
define linkonce_odr hidden void @_ZNSt5dequeISt4pairImjESaIS1_EE3endEv(ptr dead_on_unwind noalias writable sret(%"struct.std::_Deque_iterator") align 8 %0, ptr noundef nonnull align 8 dereferenceable(80) %1) #4 comdat align 2 {
  %3 = alloca ptr, align 8
  %4 = alloca ptr, align 8
  store ptr %0, ptr %3, align 8
  store ptr %1, ptr %4, align 8, !tbaa !42
  %5 = load ptr, ptr %4, align 8
  %6 = getelementptr inbounds nuw %"class.std::_Deque_base", ptr %5, i32 0, i32 0
  %7 = getelementptr inbounds nuw %"struct.std::_Deque_base<std::pair<unsigned long, unsigned int>, std::allocator<std::pair<unsigned long, unsigned int>>>::_Deque_impl_data", ptr %6, i32 0, i32 3
  call void @_ZNSt15_Deque_iteratorISt4pairImjERS1_PS1_EC2ERKS4_(ptr noundef nonnull align 8 dereferenceable(32) %0, ptr noundef nonnull align 8 dereferenceable(32) %7) #3
  ret void
}

; Function Attrs: mustprogress nounwind uwtable
define linkonce_odr hidden noundef ptr @_ZNK2cv3PtrINS_16AVIReadContainerEEptEv(ptr noundef nonnull align 8 dereferenceable(16) %0) #4 comdat align 2 {
  %2 = alloca ptr, align 8
  store ptr %0, ptr %2, align 8, !tbaa !61
  %3 = load ptr, ptr %2, align 8
  %4 = call noundef ptr @_ZNKSt12__shared_ptrIN2cv16AVIReadContainerELN9__gnu_cxx12_Lock_policyE2EE3getEv(ptr noundef nonnull align 8 dereferenceable(16) %3) #3
  ret ptr %4
}

; Function Attrs: mustprogress uwtable
define hidden void @_ZN2cv17MotionJpegCapture5closeEv(ptr noundef nonnull align 8 dereferenceable(256) %0) #7 align 2 {
  %2 = alloca ptr, align 8
  %3 = alloca %"struct.std::_Deque_iterator", align 8
  store ptr %0, ptr %2, align 8, !tbaa !3
  %4 = load ptr, ptr %2, align 8
  %5 = getelementptr inbounds nuw %"class.cv::MotionJpegCapture", ptr %4, i32 0, i32 1
  %6 = call noundef ptr @_ZNK2cv3PtrINS_16AVIReadContainerEEptEv(ptr noundef nonnull align 8 dereferenceable(16) %5) #3
  call void @_ZN2cv16AVIReadContainer5closeEv(ptr noundef nonnull align 8 dereferenceable(137) %6)
  call void @llvm.lifetime.start.p0(i64 32, ptr %3) #3
  %7 = getelementptr inbounds nuw %"class.cv::MotionJpegCapture", ptr %4, i32 0, i32 3
  call void @_ZNSt5dequeISt4pairImjESaIS1_EE3endEv(ptr dead_on_unwind writable sret(%"struct.std::_Deque_iterator") align 8 %3, ptr noundef nonnull align 8 dereferenceable(80) %7) #3
  %8 = getelementptr inbounds nuw %"class.cv::MotionJpegCapture", ptr %4, i32 0, i32 4
  call void @llvm.memcpy.p0.p0.i64(ptr align 8 %8, ptr align 8 %3, i64 32, i1 false), !tbaa.struct !39
  call void @llvm.lifetime.end.p0(i64 32, ptr %3) #3
  ret void
}