; Function Attrs: mustprogress uwtable
define hidden void @_ZN2cv17MotionJpegCapture5closeEv(ptr noundef nonnull align 8 captures(none) dereferenceable(256) initializes((112, 144)) %0) local_unnamed_addr #6 align 2 {
  %2 = getelementptr inbounds nuw i8, ptr %0, i64 8
  %3 = load ptr, ptr %2, align 8, !tbaa !87
  tail call void @_ZN2cv16AVIReadContainer5closeEv(ptr noundef nonnull align 8 dereferenceable(137) %3)
  %4 = getelementptr inbounds nuw i8, ptr %0, i64 80
  %5 = load ptr, ptr %4, align 8, !tbaa !35, !noalias !112
  %6 = getelementptr inbounds nuw i8, ptr %0, i64 88
  %7 = load ptr, ptr %6, align 8, !tbaa !39, !noalias !112
  %8 = getelementptr inbounds nuw i8, ptr %0, i64 96
  %9 = load ptr, ptr %8, align 8, !tbaa !40, !noalias !112
  %10 = getelementptr inbounds nuw i8, ptr %0, i64 104
  %11 = load ptr, ptr %10, align 8, !tbaa !41, !noalias !112
  %12 = getelementptr inbounds nuw i8, ptr %0, i64 112
  store ptr %5, ptr %12, align 8, !tbaa !42
  %.sroa.4.0..sroa_idx = getelementptr inbounds nuw i8, ptr %0, i64 120
  store ptr %7, ptr %.sroa.4.0..sroa_idx, align 8, !tbaa !42
  %.sroa.5.0..sroa_idx = getelementptr inbounds nuw i8, ptr %0, i64 128
  store ptr %9, ptr %.sroa.5.0..sroa_idx, align 8, !tbaa !42
  %.sroa.6.0..sroa_idx = getelementptr inbounds nuw i8, ptr %0, i64 136
  store ptr %11, ptr %.sroa.6.0..sroa_idx, align 8, !tbaa !43
  ret void
}